target datalayout = "e-m:e-p270:32:32-p271:32:32-p272:64:64-i64:64-i128:128-f80:128-n8:16:32:64-S128"
target triple = "x86_64-pc-linux-gnu"

@.str.1 = private unnamed_addr constant [9 x i8] c"encode.c\00", align 1
@.str.6 = private unnamed_addr constant [34 x i8] c"invalid hexadecimal digit: \22%.*s\22\00", align 1
@__func__.hex_decode_safe = private unnamed_addr constant [16 x i8] c"hex_decode_safe\00", align 1
@.str.7 = private unnamed_addr constant [47 x i8] c"invalid hexadecimal data: odd number of digits\00", align 1

; Function Attrs: inlinehint nounwind uwtable
define internal zeroext i1 @get_hex(ptr noundef %0, ptr noundef %1) #3 {
  %3 = alloca ptr, align 8
  %4 = alloca ptr, align 8
  %5 = alloca i8, align 1
  %6 = alloca i32, align 4
  store ptr %0, ptr %3, align 8
  store ptr %1, ptr %4, align 8
  call void @llvm.lifetime.start.p0(i64 1, ptr %5) #6
  %7 = load ptr, ptr %3, align 8
  %8 = load i8, ptr %7, align 1
  store i8 %8, ptr %5, align 1
  call void @llvm.lifetime.start.p0(i64 4, ptr %6) #6
  store i32 -1, ptr %6, align 4
  %9 = load i8, ptr %5, align 1
  %10 = zext i8 %9 to i32
  %11 = icmp slt i32 %10, 127
  br i1 %11, label %12, label %18

12:                                               ; preds = %2
  %13 = load i8, ptr %5, align 1
  %14 = zext i8 %13 to i64
  %15 = getelementptr inbounds nuw [128 x i8], ptr @hexlookup, i64 0, i64 %14
  %16 = load i8, ptr %15, align 1
  %17 = sext i8 %16 to i32
  store i32 %17, ptr %6, align 4
  br label %18

18:                                               ; preds = %12, %2
  %19 = load i32, ptr %6, align 4
  %20 = trunc i32 %19 to i8
  %21 = load ptr, ptr %4, align 8
  store i8 %20, ptr %21, align 1
  %22 = load i32, ptr %6, align 4
  %23 = icmp sge i32 %22, 0
  call void @llvm.lifetime.end.p0(i64 4, ptr %6) #6
  call void @llvm.lifetime.end.p0(i64 1, ptr %5) #6
  ret i1 %23
}

; Function Attrs: nounwind uwtable
define dso_local i64 @hex_decode_safe(ptr noundef %0, i64 noundef %1, ptr noundef %2, ptr noundef %3) #0 {
  %5 = alloca i64, align 8
  %6 = alloca ptr, align 8
  %7 = alloca i64, align 8
  %8 = alloca ptr, align 8
  %9 = alloca ptr, align 8
  %10 = alloca ptr, align 8
  %11 = alloca ptr, align 8
  %12 = alloca i8, align 1
  %13 = alloca i8, align 1
  %14 = alloca ptr, align 8
  %15 = alloca ptr, align 8
  %16 = alloca i32, align 4
  %17 = alloca ptr, align 8
  %18 = alloca ptr, align 8
  store ptr %0, ptr %6, align 8
  store i64 %1, ptr %7, align 8
  store ptr %2, ptr %8, align 8
  store ptr %3, ptr %9, align 8
  call void @llvm.lifetime.start.p0(i64 8, ptr %10) #6
  call void @llvm.lifetime.start.p0(i64 8, ptr %11) #6
  call void @llvm.lifetime.start.p0(i64 1, ptr %12) #6
  call void @llvm.lifetime.start.p0(i64 1, ptr %13) #6
  call void @llvm.lifetime.start.p0(i64 8, ptr %14) #6
  %19 = load ptr, ptr %6, align 8
  %20 = load i64, ptr %7, align 8
  %21 = getelementptr inbounds nuw i8, ptr %19, i64 %20
  store ptr %21, ptr %11, align 8
  %22 = load ptr, ptr %6, align 8
  store ptr %22, ptr %10, align 8
  %23 = load ptr, ptr %8, align 8
  store ptr %23, ptr %14, align 8
  br label %24

24:                                               ; preds = %114, %48, %4
  %25 = load ptr, ptr %10, align 8
  %26 = load ptr, ptr %11, align 8
  %27 = icmp ult ptr %25, %26
  br i1 %27, label %28, label %126

28:                                               ; preds = %24
  %29 = load ptr, ptr %10, align 8
  %30 = load i8, ptr %29, align 1
  %31 = sext i8 %30 to i32
  %32 = icmp eq i32 %31, 32
  br i1 %32, label %48, label %33

33:                                               ; preds = %28
  %34 = load ptr, ptr %10, align 8
  %35 = load i8, ptr %34, align 1
  %36 = sext i8 %35 to i32
  %37 = icmp eq i32 %36, 10
  br i1 %37, label %48, label %38

38:                                               ; preds = %33
  %39 = load ptr, ptr %10, align 8
  %40 = load i8, ptr %39, align 1
  %41 = sext i8 %40 to i32
  %42 = icmp eq i32 %41, 9
  br i1 %42, label %48, label %43

43:                                               ; preds = %38
  %44 = load ptr, ptr %10, align 8
  %45 = load i8, ptr %44, align 1
  %46 = sext i8 %45 to i32
  %47 = icmp eq i32 %46, 13
  br i1 %47, label %48, label %51

48:                                               ; preds = %43, %38, %33, %28
  %49 = load ptr, ptr %10, align 8
  %50 = getelementptr inbounds nuw i8, ptr %49, i32 1
  store ptr %50, ptr %10, align 8
  br label %24, !llvm.loop !7

51:                                               ; preds = %43
  %52 = load ptr, ptr %10, align 8
  %53 = call zeroext i1 @get_hex(ptr noundef %52, ptr noundef %12)
  br i1 %53, label %72, label %54

54:                                               ; preds = %51
  br label %55

55:                                               ; preds = %54
  br label %56

56:                                               ; preds = %55
  call void @llvm.lifetime.start.p0(i64 8, ptr %15) #6
  %57 = load ptr, ptr %9, align 8
  store ptr %57, ptr %15, align 8
  %58 = load ptr, ptr %15, align 8
  %59 = call zeroext i1 @errsave_start(ptr noundef %58, ptr noundef null)
  br i1 %59, label %60, label %67

60:                                               ; preds = %56
  %61 = call i32 @errcode(i32 noundef 50856066)
  %62 = load ptr, ptr %10, align 8
  %63 = call i32 @pg_mblen(ptr noundef %62)
  %64 = load ptr, ptr %10, align 8
  %65 = call i32 (ptr, ...) @errmsg(ptr noundef @.str.6, i32 noundef %63, ptr noundef %64)
  %66 = load ptr, ptr %15, align 8
  call void @errsave_finish(ptr noundef %66, ptr noundef @.str.1, i32 noundef 239, ptr noundef @__func__.hex_decode_safe)
  br label %67

67:                                               ; preds = %60, %56
  call void @llvm.lifetime.end.p0(i64 8, ptr %15) #6
  br label %68

68:                                               ; preds = %67
  br label %69

69:                                               ; preds = %68
  store i64 0, ptr %5, align 8
  store i32 1, ptr %16, align 4
  br label %132

70:                                               ; No predecessors!
  br label %71

71:                                               ; preds = %70
  br label %72

72:                                               ; preds = %71, %51
  %73 = load ptr, ptr %10, align 8
  %74 = getelementptr inbounds nuw i8, ptr %73, i32 1
  store ptr %74, ptr %10, align 8
  %75 = load ptr, ptr %10, align 8
  %76 = load ptr, ptr %11, align 8
  %77 = icmp uge ptr %75, %76
  br i1 %77, label %78, label %93

78:                                               ; preds = %72
  br label %79

79:                                               ; preds = %78
  br label %80

80:                                               ; preds = %79
  call void @llvm.lifetime.start.p0(i64 8, ptr %17) #6
  %81 = load ptr, ptr %9, align 8
  store ptr %81, ptr %17, align 8
  %82 = load ptr, ptr %17, align 8
  %83 = call zeroext i1 @errsave_start(ptr noundef %82, ptr noundef null)
  br i1 %83, label %84, label %88

84:                                               ; preds = %80
  %85 = call i32 @errcode(i32 noundef 50856066)
  %86 = call i32 (ptr, ...) @errmsg(ptr noundef @.str.7)
  %87 = load ptr, ptr %17, align 8
  call void @errsave_finish(ptr noundef %87, ptr noundef @.str.1, i32 noundef 244, ptr noundef @__func__.hex_decode_safe)
  br label %88

88:                                               ; preds = %84, %80
  call void @llvm.lifetime.end.p0(i64 8, ptr %17) #6
  br label %89

89:                                               ; preds = %88
  br label %90

90:                                               ; preds = %89
  store i64 0, ptr %5, align 8
  store i32 1, ptr %16, align 4
  br label %132

91:                                               ; No predecessors!
  br label %92

92:                                               ; preds = %91
  br label %93

93:                                               ; preds = %92, %72
  %94 = load ptr, ptr %10, align 8
  %95 = call zeroext i1 @get_hex(ptr noundef %94, ptr noundef %13)
  br i1 %95, label %114, label %96

96:                                               ; preds = %93
  br label %97

97:                                               ; preds = %96
  br label %98

98:                                               ; preds = %97
  call void @llvm.lifetime.start.p0(i64 8, ptr %18) #6
  %99 = load ptr, ptr %9, align 8
  store ptr %99, ptr %18, align 8
  %100 = load ptr, ptr %18, align 8
  %101 = call zeroext i1 @errsave_start(ptr noundef %100, ptr noundef null)
  br i1 %101, label %102, label %109

102:                                              ; preds = %98
  %103 = call i32 @errcode(i32 noundef 50856066)
  %104 = load ptr, ptr %10, align 8
  %105 = call i32 @pg_mblen(ptr noundef %104)
  %106 = load ptr, ptr %10, align 8
  %107 = call i32 (ptr, ...) @errmsg(ptr noundef @.str.6, i32 noundef %105, ptr noundef %106)
  %108 = load ptr, ptr %18, align 8
  call void @errsave_finish(ptr noundef %108, ptr noundef @.str.1, i32 noundef 249, ptr noundef @__func__.hex_decode_safe)
  br label %109

109:                                              ; preds = %102, %98
  call void @llvm.lifetime.end.p0(i64 8, ptr %18) #6
  br label %110

110:                                              ; preds = %109
  br label %111

111:                                              ; preds = %110
  store i64 0, ptr %5, align 8
  store i32 1, ptr %16, align 4
  br label %132

112:                                              ; No predecessors!
  br label %113

113:                                              ; preds = %112
  br label %114

114:                                              ; preds = %113, %93
  %115 = load ptr, ptr %10, align 8
  %116 = getelementptr inbounds nuw i8, ptr %115, i32 1
  store ptr %116, ptr %10, align 8
  %117 = load i8, ptr %12, align 1
  %118 = sext i8 %117 to i32
  %119 = shl i32 %118, 4
  %120 = load i8, ptr %13, align 1
  %121 = sext i8 %120 to i32
  %122 = or i32 %119, %121
  %123 = trunc i32 %122 to i8
  %124 = load ptr, ptr %14, align 8
  %125 = getelementptr inbounds nuw i8, ptr %124, i32 1
  store ptr %125, ptr %14, align 8
  store i8 %123, ptr %124, align 1
  br label %24, !llvm.loop !7

126:                                              ; preds = %24
  %127 = load ptr, ptr %14, align 8
  %128 = load ptr, ptr %8, align 8
  %129 = ptrtoint ptr %127 to i64
  %130 = ptrtoint ptr %128 to i64
  %131 = sub i64 %129, %130
  store i64 %131, ptr %5, align 8
  store i32 1, ptr %16, align 4
  br label %132

132:                                              ; preds = %126, %111, %90, %69
  call void @llvm.lifetime.end.p0(i64 8, ptr %14) #6
  call void @llvm.lifetime.end.p0(i64 1, ptr %13) #6
  call void @llvm.lifetime.end.p0(i64 1, ptr %12) #6
  call void @llvm.lifetime.end.p0(i64 8, ptr %11) #6
  call void @llvm.lifetime.end.p0(i64 8, ptr %10) #6
  %133 = load i64, ptr %5, align 8
  ret i64 %133
}