; Function Attrs: nounwind uwtable
define dso_local i64 @hex_decode_safe(ptr noundef %0, i64 noundef %1, ptr noundef %2, ptr noundef %3) local_unnamed_addr #0 {
  %5 = getelementptr inbounds nuw i8, ptr %0, i64 %1
  %.not56 = icmp eq i64 %1, 0
  br i1 %.not56, label %.outer._crit_edge, label %.lr.ph

.lr.ph:                                           ; preds = %4, %.outer
  %.033.ph54 = phi ptr [ %40, %.outer ], [ %0, %4 ]
  %.034.ph53 = phi ptr [ %43, %.outer ], [ %2, %4 ]
  br label %6

6:                                                ; preds = %.lr.ph, %8
  %.03351 = phi ptr [ %.033.ph54, %.lr.ph ], [ %9, %8 ]
  %7 = load i8, ptr %.03351, align 1
  switch i8 %7, label %11 [
    i8 32, label %8
    i8 10, label %8
    i8 9, label %8
    i8 13, label %8
  ]

8:                                                ; preds = %6, %6, %6, %6
  %9 = getelementptr inbounds nuw i8, ptr %.03351, i64 1
  %10 = icmp ult ptr %9, %5
  br i1 %10, label %6, label %.outer._crit_edge, !llvm.loop !7

11:                                               ; preds = %6
  %12 = icmp ult i8 %7, 127
  br i1 %12, label %get_hex.exit, label %get_hex.exit.thread

get_hex.exit:                                     ; preds = %11
  %13 = zext nneg i8 %7 to i64
  %14 = getelementptr inbounds nuw [128 x i8], ptr @hexlookup, i64 0, i64 %13
  %15 = load i8, ptr %14, align 1
  %16 = icmp sgt i8 %15, -1
  br i1 %16, label %22, label %get_hex.exit.thread

get_hex.exit.thread:                              ; preds = %11, %get_hex.exit
  %17 = tail call zeroext i1 @errsave_start(ptr noundef %3, ptr noundef null) #7
  br i1 %17, label %18, label %48

18:                                               ; preds = %get_hex.exit.thread
  %19 = tail call i32 @errcode(i32 noundef 50856066) #7
  %20 = tail call i32 @pg_mblen(ptr noundef nonnull %.03351) #7
  %21 = tail call i32 (ptr, ...) @errmsg(ptr noundef nonnull @.str.6, i32 noundef %20, ptr noundef nonnull %.03351) #7
  tail call void @errsave_finish(ptr noundef %3, ptr noundef nonnull @.str.1, i32 noundef 239, ptr noundef nonnull @__func__.hex_decode_safe) #7
  br label %48

22:                                               ; preds = %get_hex.exit
  %23 = getelementptr inbounds nuw i8, ptr %.03351, i64 1
  %.not = icmp ult ptr %23, %5
  br i1 %.not, label %29, label %24

24:                                               ; preds = %22
  %25 = tail call zeroext i1 @errsave_start(ptr noundef %3, ptr noundef null) #7
  br i1 %25, label %26, label %48

26:                                               ; preds = %24
  %27 = tail call i32 @errcode(i32 noundef 50856066) #7
  %28 = tail call i32 (ptr, ...) @errmsg(ptr noundef nonnull @.str.7) #7
  tail call void @errsave_finish(ptr noundef %3, ptr noundef nonnull @.str.1, i32 noundef 244, ptr noundef nonnull @__func__.hex_decode_safe) #7
  br label %48

29:                                               ; preds = %22
  %.val = load i8, ptr %23, align 1
  %30 = icmp ult i8 %.val, 127
  br i1 %30, label %get_hex.exit39, label %get_hex.exit39.thread

get_hex.exit39:                                   ; preds = %29
  %31 = zext nneg i8 %.val to i64
  %32 = getelementptr inbounds nuw [128 x i8], ptr @hexlookup, i64 0, i64 %31
  %33 = load i8, ptr %32, align 1
  %34 = icmp sgt i8 %33, -1
  br i1 %34, label %.outer, label %get_hex.exit39.thread

get_hex.exit39.thread:                            ; preds = %29, %get_hex.exit39
  %35 = tail call zeroext i1 @errsave_start(ptr noundef %3, ptr noundef null) #7
  br i1 %35, label %36, label %48

36:                                               ; preds = %get_hex.exit39.thread
  %37 = tail call i32 @errcode(i32 noundef 50856066) #7
  %38 = tail call i32 @pg_mblen(ptr noundef nonnull %23) #7
  %39 = tail call i32 (ptr, ...) @errmsg(ptr noundef nonnull @.str.6, i32 noundef %38, ptr noundef nonnull %23) #7
  tail call void @errsave_finish(ptr noundef %3, ptr noundef nonnull @.str.1, i32 noundef 249, ptr noundef nonnull @__func__.hex_decode_safe) #7
  br label %48

.outer:                                           ; preds = %get_hex.exit39
  %40 = getelementptr inbounds nuw i8, ptr %.03351, i64 2
  %41 = shl i8 %15, 4
  %42 = or i8 %33, %41
  %43 = getelementptr inbounds nuw i8, ptr %.034.ph53, i64 1
  store i8 %42, ptr %.034.ph53, align 1
  %44 = icmp ult ptr %40, %5
  br i1 %44, label %.lr.ph, label %.outer._crit_edge, !llvm.loop !7

.outer._crit_edge:                                ; preds = %.outer, %8, %4
  %.034.ph.lcssa50 = phi ptr [ %2, %4 ], [ %.034.ph53, %8 ], [ %43, %.outer ]
  %45 = ptrtoint ptr %.034.ph.lcssa50 to i64
  %46 = ptrtoint ptr %2 to i64
  %47 = sub i64 %45, %46
  br label %48

48:                                               ; preds = %get_hex.exit39.thread, %36, %24, %26, %get_hex.exit.thread, %18, %.outer._crit_edge
  %.0 = phi i64 [ %47, %.outer._crit_edge ], [ 0, %18 ], [ 0, %get_hex.exit.thread ], [ 0, %26 ], [ 0, %24 ], [ 0, %36 ], [ 0, %get_hex.exit39.thread ]
  ret i64 %.0
}